; Function Attrs: mustprogress uwtable
define void @_ZN3nix5Store6getUriB5cxx11Ev(ptr dead_on_unwind noalias writable sret(%"class.std::__cxx11::basic_string") align 8 %0, ptr nocapture noundef nonnull readnone align 8 dereferenceable(264) %1) unnamed_addr #5 align 2 personality ptr @__gxx_personality_v0 {
  %3 = alloca %"class.std::allocator", align 1
  call void @_ZNSaIcEC1Ev(ptr noundef nonnull align 1 dereferenceable(1) %3) #31
  invoke void @_ZNSt7__cxx1112basic_stringIcSt11char_traitsIcESaIcEEC2IS3_EEPKcRKS3_(ptr noundef nonnull align 8 dereferenceable(32) %0, ptr noundef nonnull @.str.8, ptr noundef nonnull align 1 dereferenceable(1) %3)
          to label %4 unwind label %5

4:                                                ; preds = %2
  call void @_ZNSaIcED1Ev(ptr noundef nonnull align 1 dereferenceable(1) %3) #31
  ret void

5:                                                ; preds = %2
  %6 = landingpad { ptr, i32 }
          cleanup
  call void @_ZNSaIcED1Ev(ptr noundef nonnull align 1 dereferenceable(1) %3) #31
  resume { ptr, i32 } %6
}